target datalayout = "e-m:e-p270:32:32-p271:32:32-p272:64:64-i64:64-i128:128-f80:128-n8:16:32:64-S128"
target triple = "x86_64-pc-linux-gnu"

%struct.Aig_Obj_t_ = type { %union.anon, ptr, ptr, i64, i32, i32, %union.anon.0 }
%union.anon = type { ptr }
%union.anon.0 = type { ptr }

; Function Attrs: inlinehint nounwind uwtable
define internal void @Saig_ObjSetNext(ptr noundef %0, ptr noundef %1, ptr noundef %2) #3 {
  %4 = alloca ptr, align 8
  %5 = alloca ptr, align 8
  %6 = alloca ptr, align 8
  store ptr %0, ptr %4, align 8, !tbaa !55
  store ptr %1, ptr %5, align 8, !tbaa !3
  store ptr %2, ptr %6, align 8, !tbaa !3
  %7 = load ptr, ptr %6, align 8, !tbaa !3
  %8 = load ptr, ptr %4, align 8, !tbaa !55
  %9 = load ptr, ptr %5, align 8, !tbaa !3
  %10 = getelementptr inbounds nuw %struct.Aig_Obj_t_, ptr %9, i32 0, i32 5
  %11 = load i32, ptr %10, align 4, !tbaa !51
  %12 = sext i32 %11 to i64
  %13 = getelementptr inbounds ptr, ptr %8, i64 %12
  store ptr %7, ptr %13, align 8, !tbaa !3
  ret void
}

; Function Attrs: inlinehint nounwind uwtable
define internal ptr @Saig_ObjNext(ptr noundef %0, ptr noundef %1) #3 {
  %3 = alloca ptr, align 8
  %4 = alloca ptr, align 8
  store ptr %0, ptr %3, align 8, !tbaa !55
  store ptr %1, ptr %4, align 8, !tbaa !3
  %5 = load ptr, ptr %3, align 8, !tbaa !55
  %6 = load ptr, ptr %4, align 8, !tbaa !3
  %7 = getelementptr inbounds nuw %struct.Aig_Obj_t_, ptr %6, i32 0, i32 5
  %8 = load i32, ptr %7, align 4, !tbaa !51
  %9 = sext i32 %8 to i64
  %10 = getelementptr inbounds ptr, ptr %5, i64 %9
  %11 = load ptr, ptr %10, align 8, !tbaa !3
  ret ptr %11
}

; Function Attrs: nounwind uwtable
define i32 @Saig_StrSimHash(ptr noundef %0) #0 {
  %2 = alloca ptr, align 8
  %3 = alloca ptr, align 8
  %4 = alloca i32, align 4
  %5 = alloca i32, align 4
  store ptr %0, ptr %2, align 8, !tbaa !3
  call void @llvm.lifetime.start.p0(i64 8, ptr %3) #10
  call void @llvm.lifetime.start.p0(i64 4, ptr %4) #10
  store i32 0, ptr %4, align 4, !tbaa !8
  call void @llvm.lifetime.start.p0(i64 4, ptr %5) #10
  %6 = load ptr, ptr %2, align 8, !tbaa !3
  %7 = getelementptr inbounds nuw %struct.Aig_Obj_t_, ptr %6, i32 0, i32 6
  %8 = load ptr, ptr %7, align 8, !tbaa !10
  store ptr %8, ptr %3, align 8, !tbaa !11
  store i32 0, ptr %5, align 4, !tbaa !8
  br label %9

9:                                                ; preds = %26, %1
  %10 = load i32, ptr %5, align 4, !tbaa !8
  %11 = icmp slt i32 %10, 16
  br i1 %11, label %12, label %29

12:                                               ; preds = %9
  %13 = load ptr, ptr %3, align 8, !tbaa !11
  %14 = load i32, ptr %5, align 4, !tbaa !8
  %15 = sext i32 %14 to i64
  %16 = getelementptr inbounds i32, ptr %13, i64 %15
  %17 = load i32, ptr %16, align 4, !tbaa !8
  %18 = load i32, ptr %5, align 4, !tbaa !8
  %19 = and i32 %18, 127
  %20 = sext i32 %19 to i64
  %21 = getelementptr inbounds [128 x i32], ptr @Saig_StrSimHash.s_SPrimes, i64 0, i64 %20
  %22 = load i32, ptr %21, align 4, !tbaa !8
  %23 = mul i32 %17, %22
  %24 = load i32, ptr %4, align 4, !tbaa !8
  %25 = xor i32 %24, %23
  store i32 %25, ptr %4, align 4, !tbaa !8
  br label %26

26:                                               ; preds = %12
  %27 = load i32, ptr %5, align 4, !tbaa !8
  %28 = add nsw i32 %27, 1
  store i32 %28, ptr %5, align 4, !tbaa !8
  br label %9, !llvm.loop !13

29:                                               ; preds = %9
  %30 = load i32, ptr %4, align 4, !tbaa !8
  call void @llvm.lifetime.end.p0(i64 4, ptr %5) #10
  call void @llvm.lifetime.end.p0(i64 4, ptr %4) #10
  call void @llvm.lifetime.end.p0(i64 8, ptr %3) #10
  ret i32 %30
}

; Function Attrs: nounwind uwtable
define void @Saig_StrSimTableInsert(ptr noundef %0, ptr noundef %1, i32 noundef %2, ptr noundef %3) #0 {
  %5 = alloca ptr, align 8
  %6 = alloca ptr, align 8
  %7 = alloca i32, align 4
  %8 = alloca ptr, align 8
  %9 = alloca i32, align 4
  store ptr %0, ptr %5, align 8, !tbaa !55
  store ptr %1, ptr %6, align 8, !tbaa !55
  store i32 %2, ptr %7, align 4, !tbaa !8
  store ptr %3, ptr %8, align 8, !tbaa !3
  call void @llvm.lifetime.start.p0(i64 4, ptr %9) #10
  %10 = load ptr, ptr %8, align 8, !tbaa !3
  %11 = call i32 @Saig_StrSimHash(ptr noundef %10)
  %12 = load i32, ptr %7, align 4, !tbaa !8
  %13 = urem i32 %11, %12
  store i32 %13, ptr %9, align 4, !tbaa !8
  %14 = load ptr, ptr %5, align 8, !tbaa !55
  %15 = load i32, ptr %9, align 4, !tbaa !8
  %16 = sext i32 %15 to i64
  %17 = getelementptr inbounds ptr, ptr %14, i64 %16
  %18 = load ptr, ptr %17, align 8, !tbaa !3
  %19 = icmp eq ptr %18, null
  br i1 %19, label %20, label %26

20:                                               ; preds = %4
  %21 = load ptr, ptr %8, align 8, !tbaa !3
  %22 = load ptr, ptr %5, align 8, !tbaa !55
  %23 = load i32, ptr %9, align 4, !tbaa !8
  %24 = sext i32 %23 to i64
  %25 = getelementptr inbounds ptr, ptr %22, i64 %24
  store ptr %21, ptr %25, align 8, !tbaa !3
  br label %43

26:                                               ; preds = %4
  %27 = load ptr, ptr %6, align 8, !tbaa !55
  %28 = load ptr, ptr %8, align 8, !tbaa !3
  %29 = load ptr, ptr %6, align 8, !tbaa !55
  %30 = load ptr, ptr %5, align 8, !tbaa !55
  %31 = load i32, ptr %9, align 4, !tbaa !8
  %32 = sext i32 %31 to i64
  %33 = getelementptr inbounds ptr, ptr %30, i64 %32
  %34 = load ptr, ptr %33, align 8, !tbaa !3
  %35 = call ptr @Saig_ObjNext(ptr noundef %29, ptr noundef %34)
  call void @Saig_ObjSetNext(ptr noundef %27, ptr noundef %28, ptr noundef %35)
  %36 = load ptr, ptr %6, align 8, !tbaa !55
  %37 = load ptr, ptr %5, align 8, !tbaa !55
  %38 = load i32, ptr %9, align 4, !tbaa !8
  %39 = sext i32 %38 to i64
  %40 = getelementptr inbounds ptr, ptr %37, i64 %39
  %41 = load ptr, ptr %40, align 8, !tbaa !3
  %42 = load ptr, ptr %8, align 8, !tbaa !3
  call void @Saig_ObjSetNext(ptr noundef %36, ptr noundef %41, ptr noundef %42)
  br label %43

43:                                               ; preds = %26, %20
  call void @llvm.lifetime.end.p0(i64 4, ptr %9) #10
  ret void
}