; Function Attrs: nofree norecurse nosync nounwind memory(read, argmem: readwrite, inaccessiblemem: none) uwtable
define void @Saig_StrSimTableInsert(ptr noundef captures(none) %0, ptr noundef captures(none) %1, i32 noundef %2, ptr noundef %3) local_unnamed_addr #7 {
  %5 = getelementptr inbounds nuw i8, ptr %3, i64 40
  %6 = load ptr, ptr %5, align 8, !tbaa !3
  br label %7

7:                                                ; preds = %7, %4
  %indvars.iv.i = phi i64 [ 0, %4 ], [ %indvars.iv.next.i, %7 ]
  %.078.i = phi i32 [ 0, %4 ], [ %13, %7 ]
  %8 = getelementptr inbounds nuw i32, ptr %6, i64 %indvars.iv.i
  %9 = load i32, ptr %8, align 4, !tbaa !6
  %10 = getelementptr inbounds nuw [128 x i32], ptr @Saig_StrSimHash.s_SPrimes, i64 0, i64 %indvars.iv.i
  %11 = load i32, ptr %10, align 4, !tbaa !6
  %12 = mul i32 %11, %9
  %13 = xor i32 %12, %.078.i
  %indvars.iv.next.i = add nuw nsw i64 %indvars.iv.i, 1
  %exitcond.not.i = icmp eq i64 %indvars.iv.next.i, 16
  br i1 %exitcond.not.i, label %Saig_StrSimHash.exit, label %7, !llvm.loop !8

Saig_StrSimHash.exit:                             ; preds = %7
  %14 = urem i32 %13, %2
  %15 = sext i32 %14 to i64
  %16 = getelementptr inbounds ptr, ptr %0, i64 %15
  %17 = load ptr, ptr %16, align 8, !tbaa !38
  %18 = icmp eq ptr %17, null
  br i1 %18, label %19, label %20

19:                                               ; preds = %Saig_StrSimHash.exit
  store ptr %3, ptr %16, align 8, !tbaa !38
  br label %32

20:                                               ; preds = %Saig_StrSimHash.exit
  %21 = getelementptr i8, ptr %17, i64 36
  %.val = load i32, ptr %21, align 4, !tbaa !37
  %22 = sext i32 %.val to i64
  %23 = getelementptr inbounds ptr, ptr %1, i64 %22
  %24 = load ptr, ptr %23, align 8, !tbaa !38
  %25 = getelementptr i8, ptr %3, i64 36
  %.val15 = load i32, ptr %25, align 4, !tbaa !37
  %26 = sext i32 %.val15 to i64
  %27 = getelementptr inbounds ptr, ptr %1, i64 %26
  store ptr %24, ptr %27, align 8, !tbaa !38
  %28 = load ptr, ptr %16, align 8, !tbaa !38
  %29 = getelementptr i8, ptr %28, i64 36
  %.val16 = load i32, ptr %29, align 4, !tbaa !37
  %30 = sext i32 %.val16 to i64
  %31 = getelementptr inbounds ptr, ptr %1, i64 %30
  store ptr %3, ptr %31, align 8, !tbaa !38
  br label %32

32:                                               ; preds = %20, %19
  ret void
}